target datalayout = "e-m:e-p270:32:32-p271:32:32-p272:64:64-i64:64-i128:128-f80:128-n8:16:32:64-S128"
target triple = "x86_64-pc-linux-gnu"

%"class.std::vector.4" = type { %"struct.std::_Vector_base.5" }
%"struct.std::_Vector_base.5" = type { %"struct.std::_Vector_base<int, std::allocator<int>>::_Vector_impl" }
%"struct.std::_Vector_base<int, std::allocator<int>>::_Vector_impl" = type { %"struct.std::_Vector_base<int, std::allocator<int>>::_Vector_impl_data" }
%"struct.std::_Vector_base<int, std::allocator<int>>::_Vector_impl_data" = type { ptr, ptr, ptr }
%"class.LightGBM::BinMapper" = type { i32, i32, %"class.std::vector.131", i8, double, i32, %"class.std::unordered_map", %"class.std::vector.4", double, double, i32, i32 }
%"class.std::vector.131" = type { %"struct.std::_Vector_base.132" }
%"struct.std::_Vector_base.132" = type { %"struct.std::_Vector_base<double, std::allocator<double>>::_Vector_impl" }
%"struct.std::_Vector_base<double, std::allocator<double>>::_Vector_impl" = type { %"struct.std::_Vector_base<double, std::allocator<double>>::_Vector_impl_data" }
%"struct.std::_Vector_base<double, std::allocator<double>>::_Vector_impl_data" = type { ptr, ptr, ptr }
%"class.std::unordered_map" = type { %"class.std::_Hashtable" }
%"class.std::_Hashtable" = type { ptr, i64, %"struct.std::__detail::_Hash_node_base", i64, %"struct.std::__detail::_Prime_rehash_policy", ptr }
%"struct.std::__detail::_Hash_node_base" = type { ptr }
%"struct.std::__detail::_Prime_rehash_policy" = type { float, i64 }

; Function Attrs: mustprogress nounwind uwtable
define linkonce_odr noundef i64 @_ZN8LightGBM12BinaryWriter11AlignedSizeEmm(i64 noundef %0, i64 noundef %1) #0 comdat align 2 {
  %3 = alloca i64, align 8
  %4 = alloca i64, align 8
  %5 = alloca i64, align 8
  store i64 %0, ptr %4, align 8, !tbaa !37
  store i64 %1, ptr %5, align 8, !tbaa !37
  %6 = load i64, ptr %4, align 8, !tbaa !37
  %7 = load i64, ptr %5, align 8, !tbaa !37
  %8 = urem i64 %6, %7
  %9 = icmp eq i64 %8, 0
  br i1 %9, label %10, label %12

10:                                               ; preds = %2
  %11 = load i64, ptr %4, align 8, !tbaa !37
  store i64 %11, ptr %3, align 8
  br label %20

12:                                               ; preds = %2
  %13 = load i64, ptr %4, align 8, !tbaa !37
  %14 = load i64, ptr %5, align 8, !tbaa !37
  %15 = udiv i64 %13, %14
  %16 = load i64, ptr %5, align 8, !tbaa !37
  %17 = mul i64 %15, %16
  %18 = load i64, ptr %5, align 8, !tbaa !37
  %19 = add i64 %17, %18
  store i64 %19, ptr %3, align 8
  br label %20

20:                                               ; preds = %12, %10
  %21 = load i64, ptr %3, align 8
  ret i64 %21
}

; Function Attrs: mustprogress nounwind uwtable
define noundef i64 @_ZNK8LightGBM9BinMapper11SizesInByteEv(ptr noundef nonnull align 8 dereferenceable(160) %0) #0 align 2 {
  %2 = alloca ptr, align 8
  %3 = alloca i64, align 8
  store ptr %0, ptr %2, align 8, !tbaa !1269
  %4 = load ptr, ptr %2, align 8
  call void @llvm.lifetime.start.p0(i64 8, ptr %3) #5
  %5 = call noundef i64 @_ZN8LightGBM12BinaryWriter11AlignedSizeEmm(i64 noundef 4, i64 noundef 8)
  %6 = call noundef i64 @_ZN8LightGBM12BinaryWriter11AlignedSizeEmm(i64 noundef 4, i64 noundef 8)
  %7 = add i64 %5, %6
  %8 = call noundef i64 @_ZN8LightGBM12BinaryWriter11AlignedSizeEmm(i64 noundef 1, i64 noundef 8)
  %9 = add i64 %7, %8
  %10 = add i64 %9, 8
  %11 = call noundef i64 @_ZN8LightGBM12BinaryWriter11AlignedSizeEmm(i64 noundef 4, i64 noundef 8)
  %12 = add i64 %10, %11
  %13 = add i64 %12, 8
  %14 = add i64 %13, 8
  %15 = call noundef i64 @_ZN8LightGBM12BinaryWriter11AlignedSizeEmm(i64 noundef 4, i64 noundef 8)
  %16 = add i64 %14, %15
  %17 = call noundef i64 @_ZN8LightGBM12BinaryWriter11AlignedSizeEmm(i64 noundef 4, i64 noundef 8)
  %18 = add i64 %16, %17
  store i64 %18, ptr %3, align 8, !tbaa !37
  %19 = getelementptr inbounds nuw %"class.LightGBM::BinMapper", ptr %4, i32 0, i32 5
  %20 = load i32, ptr %19, align 8, !tbaa !1288
  %21 = icmp eq i32 %20, 0
  br i1 %21, label %22, label %29

22:                                               ; preds = %1
  %23 = getelementptr inbounds nuw %"class.LightGBM::BinMapper", ptr %4, i32 0, i32 0
  %24 = load i32, ptr %23, align 8, !tbaa !1271
  %25 = sext i32 %24 to i64
  %26 = mul i64 8, %25
  %27 = load i64, ptr %3, align 8, !tbaa !37
  %28 = add i64 %27, %26
  store i64 %28, ptr %3, align 8, !tbaa !37
  br label %36

29:                                               ; preds = %1
  %30 = getelementptr inbounds nuw %"class.LightGBM::BinMapper", ptr %4, i32 0, i32 0
  %31 = load i32, ptr %30, align 8, !tbaa !1271
  %32 = sext i32 %31 to i64
  %33 = mul i64 4, %32
  %34 = load i64, ptr %3, align 8, !tbaa !37
  %35 = add i64 %34, %33
  store i64 %35, ptr %3, align 8, !tbaa !37
  br label %36

36:                                               ; preds = %29, %22
  %37 = load i64, ptr %3, align 8, !tbaa !37
  call void @llvm.lifetime.end.p0(i64 8, ptr %3) #5
  ret i64 %37
}