; Function Attrs: mustprogress nofree norecurse nosync nounwind willreturn memory(argmem: read) uwtable
define noundef range(i64 -17179869112, 17179869249) i64 @_ZNK8LightGBM9BinMapper11SizesInByteEv(ptr noundef nonnull readonly align 8 captures(none) dereferenceable(160) %0) local_unnamed_addr #31 align 2 {
  %2 = getelementptr inbounds nuw i8, ptr %0, i64 48
  %3 = load i32, ptr %2, align 8, !tbaa !956
  %4 = icmp eq i32 %3, 0
  %5 = load i32, ptr %0, align 8
  %6 = sext i32 %5 to i64
  %.pn.v = select i1 %4, i64 3, i64 2
  %.pn = shl nsw i64 %6, %.pn.v
  %.0 = add nsw i64 %.pn, 72
  ret i64 %.0
}